; Function Attrs: mustprogress uwtable
define hidden noundef zeroext i1 @_ZN7mitsuba8get_flagERKNSt3__112basic_stringIcNS0_11char_traitsIcEENS0_9allocatorIcEEEERKNS_10PropertiesE(ptr noundef nonnull align 8 dereferenceable(24) %0, ptr noundef nonnull align 8 dereferenceable(8) %1) local_unnamed_addr #0 personality ptr @__gxx_personality_v0 {
  %3 = alloca %"class.std::__1::basic_string", align 8
  %4 = tail call noundef zeroext i1 @_ZNK7mitsuba10Properties12has_propertyERKNSt3__112basic_stringIcNS1_11char_traitsIcEENS1_9allocatorIcEEEE(ptr noundef nonnull align 8 dereferenceable(8) %1, ptr noundef nonnull align 8 dereferenceable(24) %0)
  br i1 %4, label %5, label %.thread11

5:                                                ; preds = %2
  %6 = tail call noundef i32 @_ZNK7mitsuba10Properties4typeERKNSt3__112basic_stringIcNS1_11char_traitsIcEENS1_9allocatorIcEEEE(ptr noundef nonnull align 8 dereferenceable(8) %1, ptr noundef nonnull align 8 dereferenceable(24) %0)
  %7 = icmp eq i32 %6, 2
  br i1 %7, label %8, label %.thread11

8:                                                ; preds = %5
  call void @_ZNK7mitsuba10Properties9as_stringERKNSt3__112basic_stringIcNS1_11char_traitsIcEENS1_9allocatorIcEEEE(ptr dead_on_unwind nonnull writable sret(%"class.std::__1::basic_string") align 8 %3, ptr noundef nonnull align 8 dereferenceable(8) %1, ptr noundef nonnull align 8 dereferenceable(24) %0)
  %9 = invoke noundef float @_ZNSt3__14stofERKNS_12basic_stringIcNS_11char_traitsIcEENS_9allocatorIcEEEEPm(ptr noundef nonnull align 8 dereferenceable(24) %3, ptr noundef null)
          to label %10 unwind label %13

10:                                               ; preds = %8
  %11 = fcmp contract oeq float %9, 0.000000e+00
  call void @_ZNSt3__112basic_stringIcNS_11char_traitsIcEENS_9allocatorIcEEED1Ev(ptr noundef nonnull align 8 dereferenceable(24) %3) #21
  br i1 %11, label %12, label %.thread11

12:                                               ; preds = %10
  br label %.thread11

13:                                               ; preds = %8
  %14 = landingpad { ptr, i32 }
          cleanup
  call void @_ZNSt3__112basic_stringIcNS_11char_traitsIcEENS_9allocatorIcEEED1Ev(ptr noundef nonnull align 8 dereferenceable(24) %3) #21
  resume { ptr, i32 } %14

.thread11:                                        ; preds = %5, %12, %10, %2
  %.0 = phi i1 [ false, %2 ], [ false, %12 ], [ true, %10 ], [ true, %5 ]
  ret i1 %.0
}